target datalayout = "e-m:e-p270:32:32-p271:32:32-p272:64:64-i64:64-i128:128-f80:128-n8:16:32:64-S128"
target triple = "x86_64-pc-linux-gnu"

%struct.vba_project_tag = type { ptr, ptr, ptr, ptr, ptr, ptr, ptr, i32 }

; Function Attrs: nounwind uwtable
define void @cli_free_vba_project(ptr noundef %0) #0 {
  %2 = alloca ptr, align 8
  store ptr %0, ptr %2, align 8
  %3 = load ptr, ptr %2, align 8
  %4 = icmp ne ptr %3, null
  br i1 %4, label %5, label %61

5:                                                ; preds = %1
  %6 = load ptr, ptr %2, align 8
  %7 = getelementptr inbounds %struct.vba_project_tag, ptr %6, i32 0, i32 5
  %8 = load ptr, ptr %7, align 8
  %9 = icmp ne ptr %8, null
  br i1 %9, label %10, label %14

10:                                               ; preds = %5
  %11 = load ptr, ptr %2, align 8
  %12 = getelementptr inbounds %struct.vba_project_tag, ptr %11, i32 0, i32 5
  %13 = load ptr, ptr %12, align 8
  call void @free(ptr noundef %13) #8
  br label %14

14:                                               ; preds = %10, %5
  %15 = load ptr, ptr %2, align 8
  %16 = getelementptr inbounds %struct.vba_project_tag, ptr %15, i32 0, i32 1
  %17 = load ptr, ptr %16, align 8
  %18 = icmp ne ptr %17, null
  br i1 %18, label %19, label %23

19:                                               ; preds = %14
  %20 = load ptr, ptr %2, align 8
  %21 = getelementptr inbounds %struct.vba_project_tag, ptr %20, i32 0, i32 1
  %22 = load ptr, ptr %21, align 8
  call void @free(ptr noundef %22) #8
  br label %23

23:                                               ; preds = %19, %14
  %24 = load ptr, ptr %2, align 8
  %25 = getelementptr inbounds %struct.vba_project_tag, ptr %24, i32 0, i32 0
  %26 = load ptr, ptr %25, align 8
  %27 = icmp ne ptr %26, null
  br i1 %27, label %28, label %32

28:                                               ; preds = %23
  %29 = load ptr, ptr %2, align 8
  %30 = getelementptr inbounds %struct.vba_project_tag, ptr %29, i32 0, i32 0
  %31 = load ptr, ptr %30, align 8
  call void @free(ptr noundef %31) #8
  br label %32

32:                                               ; preds = %28, %23
  %33 = load ptr, ptr %2, align 8
  %34 = getelementptr inbounds %struct.vba_project_tag, ptr %33, i32 0, i32 2
  %35 = load ptr, ptr %34, align 8
  %36 = icmp ne ptr %35, null
  br i1 %36, label %37, label %41

37:                                               ; preds = %32
  %38 = load ptr, ptr %2, align 8
  %39 = getelementptr inbounds %struct.vba_project_tag, ptr %38, i32 0, i32 2
  %40 = load ptr, ptr %39, align 8
  call void @free(ptr noundef %40) #8
  br label %41

41:                                               ; preds = %37, %32
  %42 = load ptr, ptr %2, align 8
  %43 = getelementptr inbounds %struct.vba_project_tag, ptr %42, i32 0, i32 3
  %44 = load ptr, ptr %43, align 8
  %45 = icmp ne ptr %44, null
  br i1 %45, label %46, label %50

46:                                               ; preds = %41
  %47 = load ptr, ptr %2, align 8
  %48 = getelementptr inbounds %struct.vba_project_tag, ptr %47, i32 0, i32 3
  %49 = load ptr, ptr %48, align 8
  call void @free(ptr noundef %49) #8
  br label %50

50:                                               ; preds = %46, %41
  %51 = load ptr, ptr %2, align 8
  %52 = getelementptr inbounds %struct.vba_project_tag, ptr %51, i32 0, i32 4
  %53 = load ptr, ptr %52, align 8
  %54 = icmp ne ptr %53, null
  br i1 %54, label %55, label %59

55:                                               ; preds = %50
  %56 = load ptr, ptr %2, align 8
  %57 = getelementptr inbounds %struct.vba_project_tag, ptr %56, i32 0, i32 4
  %58 = load ptr, ptr %57, align 8
  call void @free(ptr noundef %58) #8
  br label %59

59:                                               ; preds = %55, %50
  %60 = load ptr, ptr %2, align 8
  call void @free(ptr noundef %60) #8
  br label %61

61:                                               ; preds = %59, %1
  ret void
}