; Function Attrs: mustprogress nounwind willreturn uwtable
define void @cli_free_vba_project(ptr noundef %0) local_unnamed_addr #10 {
  %.not = icmp eq ptr %0, null
  br i1 %.not, label %26, label %2

2:                                                ; preds = %1
  %3 = getelementptr inbounds i8, ptr %0, i64 40
  %4 = load ptr, ptr %3, align 8
  %.not20 = icmp eq ptr %4, null
  br i1 %.not20, label %6, label %5

5:                                                ; preds = %2
  tail call void @free(ptr noundef nonnull %4) #17
  br label %6

6:                                                ; preds = %5, %2
  %7 = getelementptr inbounds i8, ptr %0, i64 8
  %8 = load ptr, ptr %7, align 8
  %.not21 = icmp eq ptr %8, null
  br i1 %.not21, label %10, label %9

9:                                                ; preds = %6
  tail call void @free(ptr noundef nonnull %8) #17
  br label %10

10:                                               ; preds = %9, %6
  %11 = load ptr, ptr %0, align 8
  %.not22 = icmp eq ptr %11, null
  br i1 %.not22, label %13, label %12

12:                                               ; preds = %10
  tail call void @free(ptr noundef nonnull %11) #17
  br label %13

13:                                               ; preds = %12, %10
  %14 = getelementptr inbounds i8, ptr %0, i64 16
  %15 = load ptr, ptr %14, align 8
  %.not23 = icmp eq ptr %15, null
  br i1 %.not23, label %17, label %16

16:                                               ; preds = %13
  tail call void @free(ptr noundef nonnull %15) #17
  br label %17

17:                                               ; preds = %16, %13
  %18 = getelementptr inbounds i8, ptr %0, i64 24
  %19 = load ptr, ptr %18, align 8
  %.not24 = icmp eq ptr %19, null
  br i1 %.not24, label %21, label %20

20:                                               ; preds = %17
  tail call void @free(ptr noundef nonnull %19) #17
  br label %21

21:                                               ; preds = %20, %17
  %22 = getelementptr inbounds i8, ptr %0, i64 32
  %23 = load ptr, ptr %22, align 8
  %.not25 = icmp eq ptr %23, null
  br i1 %.not25, label %25, label %24

24:                                               ; preds = %21
  tail call void @free(ptr noundef nonnull %23) #17
  br label %25

25:                                               ; preds = %24, %21
  tail call void @free(ptr noundef nonnull %0) #17
  br label %26

26:                                               ; preds = %25, %1
  ret void
}